; ModuleID = 'source-C-CXX/39/1952.c'
source_filename = "source-C-CXX/39/1952.c"
target datalayout = "e-m:e-p270:32:32-p271:32:32-p272:64:64-i64:64-f80:128-n8:16:32:64-S128"
target triple = "x86_64-pc-linux-gnu"

@.str = private unnamed_addr constant [4 x i8] c"%lf\00", align 1
@.str.1 = private unnamed_addr constant [14 x i8] c"Invalid input\00", align 1
@.str.2 = private unnamed_addr constant [6 x i8] c"%.4lf\00", align 1

; Function Attrs: nofree nounwind sspstrong uwtable
define dso_local i32 @main() local_unnamed_addr #0 {
  %1 = alloca double, align 8
  %2 = alloca double, align 8
  %3 = alloca double, align 8
  %4 = alloca double, align 8
  %5 = alloca double, align 8
  %6 = bitcast double* %1 to i8*
  call void @llvm.lifetime.start.p0i8(i64 8, i8* nonnull %6) #4
  %7 = bitcast double* %2 to i8*
  call void @llvm.lifetime.start.p0i8(i64 8, i8* nonnull %7) #4
  %8 = bitcast double* %3 to i8*
  call void @llvm.lifetime.start.p0i8(i64 8, i8* nonnull %8) #4
  %9 = bitcast double* %4 to i8*
  call void @llvm.lifetime.start.p0i8(i64 8, i8* nonnull %9) #4
  %10 = bitcast double* %5 to i8*
  call void @llvm.lifetime.start.p0i8(i64 8, i8* nonnull %10) #4
  %11 = call i32 (i8*, ...) @__isoc99_scanf(i8* getelementptr inbounds ([4 x i8], [4 x i8]* @.str, i64 0, i64 0), double* nonnull %1)
  %12 = call i32 (i8*, ...) @__isoc99_scanf(i8* getelementptr inbounds ([4 x i8], [4 x i8]* @.str, i64 0, i64 0), double* nonnull %2)
  %13 = call i32 (i8*, ...) @__isoc99_scanf(i8* getelementptr inbounds ([4 x i8], [4 x i8]* @.str, i64 0, i64 0), double* nonnull %3)
  %14 = call i32 (i8*, ...) @__isoc99_scanf(i8* getelementptr inbounds ([4 x i8], [4 x i8]* @.str, i64 0, i64 0), double* nonnull %4)
  %15 = call i32 (i8*, ...) @__isoc99_scanf(i8* getelementptr inbounds ([4 x i8], [4 x i8]* @.str, i64 0, i64 0), double* nonnull %5)
  %16 = load double, double* %1, align 8, !tbaa !5
  %17 = load double, double* %2, align 8, !tbaa !5
  %18 = fadd double %16, %17
  %19 = load double, double* %3, align 8, !tbaa !5
  %20 = fadd double %18, %19
  %21 = load double, double* %4, align 8, !tbaa !5
  %22 = fadd double %20, %21
  %23 = fmul double %22, 5.000000e-01
  %24 = fsub double %23, %16
  %25 = fsub double %23, %17
  %26 = fmul double %24, %25
  %27 = fsub double %23, %19
  %28 = fmul double %27, %26
  %29 = fsub double %23, %21
  %30 = fmul double %29, %28
  %31 = fmul double %16, %17
  %32 = fmul double %31, %19
  %33 = fmul double %32, %21
  %34 = load double, double* %5, align 8, !tbaa !5
  %35 = fdiv double %34, 3.600000e+02
  %36 = fmul double %35, 0x400921FB4D12D84A
  %37 = call double @cos(double %36) #4
  %38 = fmul double %33, %37
  %39 = load double, double* %5, align 8, !tbaa !5
  %40 = fdiv double %39, 3.600000e+02
  %41 = fmul double %40, 0x400921FB4D12D84A
  %42 = call double @cos(double %41) #4
  %43 = fmul double %38, %42
  %44 = fsub double %30, %43
  %45 = call double @sqrt(double %44) #4
  %46 = load double, double* %1, align 8, !tbaa !5
  %47 = fsub double %23, %46
  %48 = load double, double* %2, align 8, !tbaa !5
  %49 = fsub double %23, %48
  %50 = fmul double %47, %49
  %51 = load double, double* %3, align 8, !tbaa !5
  %52 = fsub double %23, %51
  %53 = fmul double %50, %52
  %54 = load double, double* %4, align 8, !tbaa !5
  %55 = fsub double %23, %54
  %56 = fmul double %53, %55
  %57 = fmul double %46, %48
  %58 = fmul double %57, %51
  %59 = fmul double %58, %54
  %60 = load double, double* %5, align 8, !tbaa !5
  %61 = fdiv double %60, 3.600000e+02
  %62 = fmul double %61, 0x400921FB4D12D84A
  %63 = call double @cos(double %62) #4
  %64 = fmul double %59, %63
  %65 = load double, double* %5, align 8, !tbaa !5
  %66 = fdiv double %65, 3.600000e+02
  %67 = fmul double %66, 0x400921FB4D12D84A
  %68 = call double @cos(double %67) #4
  %69 = fmul double %64, %68
  %70 = fsub double %56, %69
  %71 = fcmp olt double %70, 0.000000e+00
  br i1 %71, label %72, label %74

72:                                               ; preds = %0
  %73 = call i32 (i8*, ...) @printf(i8* nonnull dereferenceable(1) getelementptr inbounds ([14 x i8], [14 x i8]* @.str.1, i64 0, i64 0))
  br label %76

74:                                               ; preds = %0
  %75 = call i32 (i8*, ...) @printf(i8* nonnull dereferenceable(1) getelementptr inbounds ([6 x i8], [6 x i8]* @.str.2, i64 0, i64 0), double %45)
  br label %76

76:                                               ; preds = %74, %72
  call void @llvm.lifetime.end.p0i8(i64 8, i8* nonnull %10) #4
  call void @llvm.lifetime.end.p0i8(i64 8, i8* nonnull %9) #4
  call void @llvm.lifetime.end.p0i8(i64 8, i8* nonnull %8) #4
  call void @llvm.lifetime.end.p0i8(i64 8, i8* nonnull %7) #4
  call void @llvm.lifetime.end.p0i8(i64 8, i8* nonnull %6) #4
  ret i32 0
}

; Function Attrs: argmemonly mustprogress nofree nosync nounwind willreturn
declare void @llvm.lifetime.start.p0i8(i64 immarg, i8* nocapture) #1

; Function Attrs: nofree nounwind
declare noundef i32 @__isoc99_scanf(i8* nocapture noundef readonly, ...) local_unnamed_addr #2

; Function Attrs: mustprogress nofree nounwind willreturn
declare double @sqrt(double) local_unnamed_addr #3

; Function Attrs: mustprogress nofree nounwind willreturn
declare double @cos(double) local_unnamed_addr #3

; Function Attrs: nofree nounwind
declare noundef i32 @printf(i8* nocapture noundef readonly, ...) local_unnamed_addr #2

; Function Attrs: argmemonly mustprogress nofree nosync nounwind willreturn
declare void @llvm.lifetime.end.p0i8(i64 immarg, i8* nocapture) #1


!llvm.module.flags = !{!0, !1, !2, !3}
!llvm.ident = !{!4}

!0 = !{i32 1, !"wchar_size", i32 4}
!1 = !{i32 7, !"PIC Level", i32 2}
!2 = !{i32 7, !"PIE Level", i32 2}
!3 = !{i32 7, !"uwtable", i32 1}
!4 = !{!"clang version 13.0.0"}
!5 = !{!6, !6, i64 0}
!6 = !{!"double", !7, i64 0}
!7 = !{!"omnipotent char", !8, i64 0}
!8 = !{!"Simple C/C++ TBAA"}
